target datalayout = "e-m:e-p270:32:32-p271:32:32-p272:64:64-i64:64-i128:128-f80:128-n8:16:32:64-S128"
target triple = "x86_64-pc-linux-gnu"

%struct.SDL_Keyboard = type { ptr, i16, [512 x i8], [512 x i8], ptr, i32, i8, i64, i32 }

@SDL_keyboard = internal global %struct.SDL_Keyboard zeroinitializer, align 8

; Function Attrs: nounwind uwtable
define hidden ptr @SDL_GetKeyboardState_REAL(ptr noundef %0) #0 {
  %2 = alloca ptr, align 8
  %3 = alloca ptr, align 8
  store ptr %0, ptr %2, align 8
  call void @llvm.lifetime.start.p0(i64 8, ptr %3) #6
  store ptr @SDL_keyboard, ptr %3, align 8
  %4 = load ptr, ptr %2, align 8
  %5 = icmp ne ptr %4, null
  br i1 %5, label %6, label %8

6:                                                ; preds = %1
  %7 = load ptr, ptr %2, align 8
  store i32 512, ptr %7, align 4
  br label %8

8:                                                ; preds = %6, %1
  %9 = load ptr, ptr %3, align 8
  %10 = getelementptr inbounds nuw %struct.SDL_Keyboard, ptr %9, i32 0, i32 3
  %11 = getelementptr inbounds [512 x i8], ptr %10, i64 0, i64 0
  call void @llvm.lifetime.end.p0(i64 8, ptr %3) #6
  ret ptr %11
}