; Function Attrs: mustprogress nofree norecurse nosync nounwind willreturn memory(argmem: write) uwtable
define hidden nonnull ptr @SDL_GetKeyboardState_REAL(ptr noundef writeonly captures(address_is_null) %0) local_unnamed_addr #10 {
  %.not = icmp eq ptr %0, null
  br i1 %.not, label %3, label %2

2:                                                ; preds = %1
  store i32 512, ptr %0, align 4
  br label %3

3:                                                ; preds = %2, %1
  ret ptr getelementptr inbounds nuw (i8, ptr @SDL_keyboard, i64 522)
}